; Function Attrs: inlinehint nounwind uwtable
define internal fastcc void @pmix_bfrops_base_tma_app_destruct(ptr noundef nonnull captures(none) %0, ptr noundef %1) unnamed_addr #4 {
  %3 = load ptr, ptr %0, align 8, !tbaa !185
  %.not = icmp eq ptr %3, null
  br i1 %.not, label %9, label %4

4:                                                ; preds = %2
  %.not.i = icmp eq ptr %1, null
  br i1 %.not.i, label %8, label %5

5:                                                ; preds = %4
  %6 = getelementptr inbounds nuw i8, ptr %1, i64 40
  %7 = load ptr, ptr %6, align 8, !tbaa !38
  tail call void %7(ptr noundef nonnull %1, ptr noundef nonnull %3) #17
  br label %pmix_tma_free.exit

8:                                                ; preds = %4
  tail call void @free(ptr noundef nonnull %3) #17
  br label %pmix_tma_free.exit

pmix_tma_free.exit:                               ; preds = %5, %8
  store ptr null, ptr %0, align 8, !tbaa !185
  br label %9

9:                                                ; preds = %pmix_tma_free.exit, %2
  %10 = getelementptr inbounds nuw i8, ptr %0, i64 8
  %11 = load ptr, ptr %10, align 8, !tbaa !187
  %.not26 = icmp eq ptr %11, null
  br i1 %.not26, label %24, label %.preheader.i

.preheader.i:                                     ; preds = %9
  %12 = load ptr, ptr %11, align 8, !tbaa !68
  %.not1013.i = icmp eq ptr %12, null
  br i1 %.not1013.i, label %._crit_edge.i, label %.lr.ph.i

.lr.ph.i:                                         ; preds = %.preheader.i
  %.not.i11.i = icmp eq ptr %1, null
  %13 = getelementptr inbounds nuw i8, ptr %1, i64 40
  br i1 %.not.i11.i, label %pmix_tma_free.exit12.us.i, label %pmix_tma_free.exit12.i

pmix_tma_free.exit12.us.i:                        ; preds = %.lr.ph.i, %pmix_tma_free.exit12.us.i
  %14 = phi ptr [ %16, %pmix_tma_free.exit12.us.i ], [ %12, %.lr.ph.i ]
  %.014.us.i = phi ptr [ %15, %pmix_tma_free.exit12.us.i ], [ %11, %.lr.ph.i ]
  tail call void @free(ptr noundef nonnull %14) #17
  %15 = getelementptr inbounds nuw i8, ptr %.014.us.i, i64 8
  %16 = load ptr, ptr %15, align 8, !tbaa !68
  %.not10.us.i = icmp eq ptr %16, null
  br i1 %.not10.us.i, label %._crit_edge.i, label %pmix_tma_free.exit12.us.i, !llvm.loop !146

._crit_edge.i:                                    ; preds = %pmix_tma_free.exit12.us.i, %.preheader.i
  %.not.i.i = icmp eq ptr %1, null
  br i1 %.not.i.i, label %19, label %._crit_edge.thread.i

._crit_edge.thread.i:                             ; preds = %pmix_tma_free.exit12.i, %._crit_edge.i
  %17 = getelementptr inbounds nuw i8, ptr %1, i64 40
  %18 = load ptr, ptr %17, align 8, !tbaa !38
  tail call void %18(ptr noundef nonnull %1, ptr noundef nonnull %11) #17
  br label %pmix_bfrops_base_tma_argv_free.exit

19:                                               ; preds = %._crit_edge.i
  tail call void @free(ptr noundef nonnull %11) #17
  br label %pmix_bfrops_base_tma_argv_free.exit

pmix_tma_free.exit12.i:                           ; preds = %.lr.ph.i, %pmix_tma_free.exit12.i
  %20 = phi ptr [ %23, %pmix_tma_free.exit12.i ], [ %12, %.lr.ph.i ]
  %.014.i = phi ptr [ %22, %pmix_tma_free.exit12.i ], [ %11, %.lr.ph.i ]
  %21 = load ptr, ptr %13, align 8, !tbaa !38
  tail call void %21(ptr noundef nonnull %1, ptr noundef nonnull %20) #17
  %22 = getelementptr inbounds nuw i8, ptr %.014.i, i64 8
  %23 = load ptr, ptr %22, align 8, !tbaa !68
  %.not10.i = icmp eq ptr %23, null
  br i1 %.not10.i, label %._crit_edge.thread.i, label %pmix_tma_free.exit12.i, !llvm.loop !146

pmix_bfrops_base_tma_argv_free.exit:              ; preds = %._crit_edge.thread.i, %19
  store ptr null, ptr %10, align 8, !tbaa !187
  br label %24

24:                                               ; preds = %pmix_bfrops_base_tma_argv_free.exit, %9
  %25 = getelementptr inbounds nuw i8, ptr %0, i64 16
  %26 = load ptr, ptr %25, align 8, !tbaa !188
  %.not27 = icmp eq ptr %26, null
  br i1 %.not27, label %39, label %.preheader.i32

.preheader.i32:                                   ; preds = %24
  %27 = load ptr, ptr %26, align 8, !tbaa !68
  %.not1013.i33 = icmp eq ptr %27, null
  br i1 %.not1013.i33, label %._crit_edge.i43, label %.lr.ph.i34

.lr.ph.i34:                                       ; preds = %.preheader.i32
  %.not.i11.i35 = icmp eq ptr %1, null
  %28 = getelementptr inbounds nuw i8, ptr %1, i64 40
  br i1 %.not.i11.i35, label %pmix_tma_free.exit12.us.i40, label %pmix_tma_free.exit12.i36

pmix_tma_free.exit12.us.i40:                      ; preds = %.lr.ph.i34, %pmix_tma_free.exit12.us.i40
  %29 = phi ptr [ %31, %pmix_tma_free.exit12.us.i40 ], [ %27, %.lr.ph.i34 ]
  %.014.us.i41 = phi ptr [ %30, %pmix_tma_free.exit12.us.i40 ], [ %26, %.lr.ph.i34 ]
  tail call void @free(ptr noundef nonnull %29) #17
  %30 = getelementptr inbounds nuw i8, ptr %.014.us.i41, i64 8
  %31 = load ptr, ptr %30, align 8, !tbaa !68
  %.not10.us.i42 = icmp eq ptr %31, null
  br i1 %.not10.us.i42, label %._crit_edge.i43, label %pmix_tma_free.exit12.us.i40, !llvm.loop !146

._crit_edge.i43:                                  ; preds = %pmix_tma_free.exit12.us.i40, %.preheader.i32
  %.not.i.i44 = icmp eq ptr %1, null
  br i1 %.not.i.i44, label %34, label %._crit_edge.thread.i39

._crit_edge.thread.i39:                           ; preds = %pmix_tma_free.exit12.i36, %._crit_edge.i43
  %32 = getelementptr inbounds nuw i8, ptr %1, i64 40
  %33 = load ptr, ptr %32, align 8, !tbaa !38
  tail call void %33(ptr noundef nonnull %1, ptr noundef nonnull %26) #17
  br label %pmix_bfrops_base_tma_argv_free.exit45

34:                                               ; preds = %._crit_edge.i43
  tail call void @free(ptr noundef nonnull %26) #17
  br label %pmix_bfrops_base_tma_argv_free.exit45

pmix_tma_free.exit12.i36:                         ; preds = %.lr.ph.i34, %pmix_tma_free.exit12.i36
  %35 = phi ptr [ %38, %pmix_tma_free.exit12.i36 ], [ %27, %.lr.ph.i34 ]
  %.014.i37 = phi ptr [ %37, %pmix_tma_free.exit12.i36 ], [ %26, %.lr.ph.i34 ]
  %36 = load ptr, ptr %28, align 8, !tbaa !38
  tail call void %36(ptr noundef nonnull %1, ptr noundef nonnull %35) #17
  %37 = getelementptr inbounds nuw i8, ptr %.014.i37, i64 8
  %38 = load ptr, ptr %37, align 8, !tbaa !68
  %.not10.i38 = icmp eq ptr %38, null
  br i1 %.not10.i38, label %._crit_edge.thread.i39, label %pmix_tma_free.exit12.i36, !llvm.loop !146

pmix_bfrops_base_tma_argv_free.exit45:            ; preds = %._crit_edge.thread.i39, %34
  store ptr null, ptr %25, align 8, !tbaa !188
  br label %39

39:                                               ; preds = %pmix_bfrops_base_tma_argv_free.exit45, %24
  %40 = getelementptr inbounds nuw i8, ptr %0, i64 24
  %41 = load ptr, ptr %40, align 8, !tbaa !189
  %.not28 = icmp eq ptr %41, null
  br i1 %.not28, label %47, label %42

42:                                               ; preds = %39
  %.not.i46 = icmp eq ptr %1, null
  br i1 %.not.i46, label %46, label %43

43:                                               ; preds = %42
  %44 = getelementptr inbounds nuw i8, ptr %1, i64 40
  %45 = load ptr, ptr %44, align 8, !tbaa !38
  tail call void %45(ptr noundef nonnull %1, ptr noundef nonnull %41) #17
  br label %pmix_tma_free.exit47

46:                                               ; preds = %42
  tail call void @free(ptr noundef nonnull %41) #17
  br label %pmix_tma_free.exit47

pmix_tma_free.exit47:                             ; preds = %43, %46
  store ptr null, ptr %40, align 8, !tbaa !189
  br label %47

47:                                               ; preds = %pmix_tma_free.exit47, %39
  %48 = getelementptr inbounds nuw i8, ptr %0, i64 40
  %49 = load ptr, ptr %48, align 8, !tbaa !190
  %.not29 = icmp eq ptr %49, null
  br i1 %.not29, label %63, label %50

50:                                               ; preds = %47
  %51 = getelementptr inbounds nuw i8, ptr %0, i64 48
  %52 = load i64, ptr %51, align 8, !tbaa !191
  %.not53 = icmp eq i64 %52, 0
  br i1 %.not53, label %._crit_edge, label %.lr.ph

._crit_edge:                                      ; preds = %pmix_bfrops_base_tma_info_destruct.exit, %50
  %.not.i49 = icmp eq ptr %1, null
  br i1 %.not.i49, label %56, label %53

53:                                               ; preds = %._crit_edge
  %54 = getelementptr inbounds nuw i8, ptr %1, i64 40
  %55 = load ptr, ptr %54, align 8, !tbaa !38
  tail call void %55(ptr noundef nonnull %1, ptr noundef nonnull %49) #17
  br label %pmix_bfrops_base_tma_info_free.exit

56:                                               ; preds = %._crit_edge
  tail call void @free(ptr noundef nonnull %49) #17
  br label %pmix_bfrops_base_tma_info_free.exit

.lr.ph:                                           ; preds = %50, %pmix_bfrops_base_tma_info_destruct.exit
  %.0.i52 = phi i64 [ %62, %pmix_bfrops_base_tma_info_destruct.exit ], [ 0, %50 ]
  %57 = getelementptr inbounds nuw %struct.pmix_info, ptr %49, i64 %.0.i52
  %58 = getelementptr i8, ptr %57, i64 512
  %.val.i = load i32, ptr %58, align 8, !tbaa !161
  %59 = and i32 %.val.i, 16
  %.not51 = icmp eq i32 %59, 0
  br i1 %.not51, label %60, label %pmix_bfrops_base_tma_info_destruct.exit

60:                                               ; preds = %.lr.ph
  %61 = getelementptr inbounds nuw i8, ptr %57, i64 520
  tail call fastcc void @pmix_bfrops_base_tma_value_destruct(ptr noundef nonnull %61, ptr noundef %1)
  br label %pmix_bfrops_base_tma_info_destruct.exit

pmix_bfrops_base_tma_info_destruct.exit:          ; preds = %.lr.ph, %60
  %62 = add nuw i64 %.0.i52, 1
  %exitcond.not = icmp eq i64 %62, %52
  br i1 %exitcond.not, label %._crit_edge, label %.lr.ph, !llvm.loop !163

pmix_bfrops_base_tma_info_free.exit:              ; preds = %56, %53
  tail call void @llvm.memset.p0.i64(ptr noundef nonnull align 8 dereferenceable(16) %48, i8 0, i64 16, i1 false)
  br label %63

63:                                               ; preds = %pmix_bfrops_base_tma_info_free.exit, %47
  ret void
}